; Function Attrs: nounwind uwtable
define dso_local void @fed_mgr_remove_remote_dependencies(ptr noundef %0) local_unnamed_addr #0 {
  %2 = load ptr, ptr @fed_mgr_cluster_rec, align 8
  %.not.i = icmp eq ptr %2, null
  br i1 %.not.i, label %_is_fed_job.exit.thread, label %3

3:                                                ; preds = %1
  %4 = getelementptr inbounds nuw i8, ptr %0, i64 280
  %5 = load ptr, ptr %4, align 8
  %.not4.i = icmp eq ptr %5, null
  br i1 %.not4.i, label %9, label %6

6:                                                ; preds = %3
  %7 = getelementptr inbounds nuw i8, ptr %0, i64 392
  %8 = load i32, ptr %7, align 8
  %.not5.i = icmp ult i32 %8, 67108864
  br i1 %.not5.i, label %9, label %fed_mgr_is_origin_job.exit

9:                                                ; preds = %6, %3
  %10 = tail call i32 @get_log_level() #16
  %11 = icmp sgt i32 %10, 5
  br i1 %11, label %12, label %_is_fed_job.exit.thread

12:                                               ; preds = %9
  tail call void (i32, ptr, ...) @log_var(i32 noundef 6, ptr noundef nonnull @.str.183, ptr noundef nonnull %0) #16
  br label %_is_fed_job.exit.thread

fed_mgr_is_origin_job.exit:                       ; preds = %6
  %13 = lshr i32 %8, 26
  %14 = getelementptr inbounds nuw i8, ptr %2, i64 192
  %15 = load i32, ptr %14, align 8
  %.not1.i.not = icmp eq i32 %15, %13
  br i1 %.not1.i.not, label %fed_mgr_is_origin_job.exit.thread, label %_is_fed_job.exit.thread

fed_mgr_is_origin_job.exit.thread:                ; preds = %fed_mgr_is_origin_job.exit
  %16 = getelementptr inbounds nuw i8, ptr %0, i64 216
  %17 = load ptr, ptr %16, align 8
  %.not5 = icmp eq ptr %17, null
  br i1 %.not5, label %_is_fed_job.exit.thread, label %18

18:                                               ; preds = %fed_mgr_is_origin_job.exit.thread
  %19 = tail call i32 @fed_mgr_submit_remote_dependencies(ptr noundef nonnull %0, i1 noundef zeroext false, i1 noundef zeroext true)
  br label %_is_fed_job.exit.thread

_is_fed_job.exit.thread:                          ; preds = %9, %12, %1, %fed_mgr_is_origin_job.exit, %fed_mgr_is_origin_job.exit.thread, %18
  ret void
}